; Function Attrs: mustprogress nofree norecurse nosync nounwind willreturn memory(argmem: readwrite) uwtable
define internal ptr @lxb_html_tokenizer_state_script_data_escaped_less_than_sign(ptr nocapture noundef %0, ptr noundef readonly %1, ptr nocapture readnone %2) #2 {
  %4 = load i8, ptr %1, align 1
  %5 = icmp eq i8 %4, 47
  br i1 %5, label %6, label %8

6:                                                ; preds = %3
  store ptr @lxb_html_tokenizer_state_script_data_escaped_end_tag_open, ptr %0, align 8
  %7 = getelementptr inbounds i8, ptr %1, i64 1
  br label %22

8:                                                ; preds = %3
  %9 = zext i8 %4 to i64
  %10 = getelementptr inbounds [256 x i64], ptr @lexbor_str_res_alpha_character, i64 0, i64 %9
  %11 = load i64, ptr %10, align 8
  %.not = icmp eq i64 %11, 255
  br i1 %.not, label %21, label %12

12:                                               ; preds = %8
  %13 = getelementptr inbounds i8, ptr %0, i64 136
  %14 = load ptr, ptr %13, align 8
  %15 = getelementptr inbounds i8, ptr %0, i64 128
  %16 = load ptr, ptr %15, align 8
  %17 = ptrtoint ptr %14 to i64
  %18 = ptrtoint ptr %16 to i64
  %19 = sub i64 %17, %18
  %20 = getelementptr inbounds i8, ptr %0, i64 200
  store i64 %19, ptr %20, align 8
  store ptr @lxb_html_tokenizer_state_script_data_double_escape_start, ptr %0, align 8
  br label %22

21:                                               ; preds = %8
  store ptr @lxb_html_tokenizer_state_script_data_escaped, ptr %0, align 8
  br label %22

22:                                               ; preds = %21, %12, %6
  %.0 = phi ptr [ %7, %6 ], [ %1, %12 ], [ %1, %21 ]
  ret ptr %.0
}